; ModuleID = '14/481.c'
source_filename = "14/481.c"
target datalayout = "e-m:e-p270:32:32-p271:32:32-p272:64:64-i64:64-f80:128-n8:16:32:64-S128"
target triple = "x86_64-pc-linux-gnu"

%struct.student = type { i32, i32, i32, i32 }

@.str = private unnamed_addr constant [3 x i8] c"%d\00", align 1
@.str.1 = private unnamed_addr constant [7 x i8] c"%d%d%d\00", align 1
@.str.2 = private unnamed_addr constant [7 x i8] c"%d %d\0A\00", align 1

; Function Attrs: noinline nounwind uwtable
define dso_local i32 @main() #0 {
  %1 = alloca i32, align 4
  %2 = alloca [4 x %struct.student], align 16
  %3 = alloca [4 x %struct.student], align 16
  %4 = alloca i32, align 4
  %5 = alloca i32, align 4
  store i32 0, i32* %1, align 4
  %6 = bitcast [4 x %struct.student]* %2 to i8*
  call void @llvm.memset.p0i8.i64(i8* align 16 %6, i8 0, i64 64, i1 false)
  %7 = bitcast [4 x %struct.student]* %3 to i8*
  call void @llvm.memset.p0i8.i64(i8* align 16 %7, i8 0, i64 64, i1 false)
  %8 = call i32 (i8*, ...) @__isoc99_scanf(i8* getelementptr inbounds ([3 x i8], [3 x i8]* @.str, i64 0, i64 0), i32* %4)
  store i32 0, i32* %5, align 4
  br label %9

9:                                                ; preds = %83, %0
  %10 = load i32, i32* %5, align 4
  %11 = load i32, i32* %4, align 4
  %12 = icmp slt i32 %10, %11
  br i1 %12, label %13, label %86

13:                                               ; preds = %9
  %14 = getelementptr inbounds [4 x %struct.student], [4 x %struct.student]* %2, i64 0, i64 3
  %15 = getelementptr inbounds %struct.student, %struct.student* %14, i32 0, i32 0
  %16 = getelementptr inbounds [4 x %struct.student], [4 x %struct.student]* %2, i64 0, i64 3
  %17 = getelementptr inbounds %struct.student, %struct.student* %16, i32 0, i32 1
  %18 = getelementptr inbounds [4 x %struct.student], [4 x %struct.student]* %2, i64 0, i64 3
  %19 = getelementptr inbounds %struct.student, %struct.student* %18, i32 0, i32 2
  %20 = call i32 (i8*, ...) @__isoc99_scanf(i8* getelementptr inbounds ([7 x i8], [7 x i8]* @.str.1, i64 0, i64 0), i32* %15, i32* %17, i32* %19)
  %21 = getelementptr inbounds [4 x %struct.student], [4 x %struct.student]* %2, i64 0, i64 3
  %22 = getelementptr inbounds %struct.student, %struct.student* %21, i32 0, i32 1
  %23 = load i32, i32* %22, align 4
  %24 = getelementptr inbounds [4 x %struct.student], [4 x %struct.student]* %2, i64 0, i64 3
  %25 = getelementptr inbounds %struct.student, %struct.student* %24, i32 0, i32 2
  %26 = load i32, i32* %25, align 8
  %27 = add nsw i32 %23, %26
  %28 = getelementptr inbounds [4 x %struct.student], [4 x %struct.student]* %2, i64 0, i64 3
  %29 = getelementptr inbounds %struct.student, %struct.student* %28, i32 0, i32 3
  store i32 %27, i32* %29, align 4
  %30 = getelementptr inbounds [4 x %struct.student], [4 x %struct.student]* %2, i64 0, i64 3
  %31 = getelementptr inbounds %struct.student, %struct.student* %30, i32 0, i32 3
  %32 = load i32, i32* %31, align 4
  %33 = getelementptr inbounds [4 x %struct.student], [4 x %struct.student]* %2, i64 0, i64 0
  %34 = getelementptr inbounds %struct.student, %struct.student* %33, i32 0, i32 3
  %35 = load i32, i32* %34, align 4
  %36 = icmp sgt i32 %32, %35
  br i1 %36, label %37, label %50

37:                                               ; preds = %13
  %38 = getelementptr inbounds [4 x %struct.student], [4 x %struct.student]* %2, i64 0, i64 2
  %39 = getelementptr inbounds [4 x %struct.student], [4 x %struct.student]* %2, i64 0, i64 1
  %40 = bitcast %struct.student* %38 to i8*
  %41 = bitcast %struct.student* %39 to i8*
  call void @llvm.memcpy.p0i8.p0i8.i64(i8* align 16 %40, i8* align 16 %41, i64 16, i1 false)
  %42 = getelementptr inbounds [4 x %struct.student], [4 x %struct.student]* %2, i64 0, i64 1
  %43 = getelementptr inbounds [4 x %struct.student], [4 x %struct.student]* %2, i64 0, i64 0
  %44 = bitcast %struct.student* %42 to i8*
  %45 = bitcast %struct.student* %43 to i8*
  call void @llvm.memcpy.p0i8.p0i8.i64(i8* align 16 %44, i8* align 16 %45, i64 16, i1 false)
  %46 = getelementptr inbounds [4 x %struct.student], [4 x %struct.student]* %2, i64 0, i64 0
  %47 = getelementptr inbounds [4 x %struct.student], [4 x %struct.student]* %2, i64 0, i64 3
  %48 = bitcast %struct.student* %46 to i8*
  %49 = bitcast %struct.student* %47 to i8*
  call void @llvm.memcpy.p0i8.p0i8.i64(i8* align 16 %48, i8* align 16 %49, i64 16, i1 false)
  br label %82

50:                                               ; preds = %13
  %51 = getelementptr inbounds [4 x %struct.student], [4 x %struct.student]* %2, i64 0, i64 3
  %52 = getelementptr inbounds %struct.student, %struct.student* %51, i32 0, i32 3
  %53 = load i32, i32* %52, align 4
  %54 = getelementptr inbounds [4 x %struct.student], [4 x %struct.student]* %2, i64 0, i64 1
  %55 = getelementptr inbounds %struct.student, %struct.student* %54, i32 0, i32 3
  %56 = load i32, i32* %55, align 4
  %57 = icmp sgt i32 %53, %56
  br i1 %57, label %58, label %67

58:                                               ; preds = %50
  %59 = getelementptr inbounds [4 x %struct.student], [4 x %struct.student]* %2, i64 0, i64 2
  %60 = getelementptr inbounds [4 x %struct.student], [4 x %struct.student]* %2, i64 0, i64 1
  %61 = bitcast %struct.student* %59 to i8*
  %62 = bitcast %struct.student* %60 to i8*
  call void @llvm.memcpy.p0i8.p0i8.i64(i8* align 16 %61, i8* align 16 %62, i64 16, i1 false)
  %63 = getelementptr inbounds [4 x %struct.student], [4 x %struct.student]* %2, i64 0, i64 1
  %64 = getelementptr inbounds [4 x %struct.student], [4 x %struct.student]* %2, i64 0, i64 3
  %65 = bitcast %struct.student* %63 to i8*
  %66 = bitcast %struct.student* %64 to i8*
  call void @llvm.memcpy.p0i8.p0i8.i64(i8* align 16 %65, i8* align 16 %66, i64 16, i1 false)
  br label %81

67:                                               ; preds = %50
  %68 = getelementptr inbounds [4 x %struct.student], [4 x %struct.student]* %2, i64 0, i64 3
  %69 = getelementptr inbounds %struct.student, %struct.student* %68, i32 0, i32 3
  %70 = load i32, i32* %69, align 4
  %71 = getelementptr inbounds [4 x %struct.student], [4 x %struct.student]* %2, i64 0, i64 2
  %72 = getelementptr inbounds %struct.student, %struct.student* %71, i32 0, i32 3
  %73 = load i32, i32* %72, align 4
  %74 = icmp sgt i32 %70, %73
  br i1 %74, label %75, label %80

75:                                               ; preds = %67
  %76 = getelementptr inbounds [4 x %struct.student], [4 x %struct.student]* %2, i64 0, i64 2
  %77 = getelementptr inbounds [4 x %struct.student], [4 x %struct.student]* %2, i64 0, i64 3
  %78 = bitcast %struct.student* %76 to i8*
  %79 = bitcast %struct.student* %77 to i8*
  call void @llvm.memcpy.p0i8.p0i8.i64(i8* align 16 %78, i8* align 16 %79, i64 16, i1 false)
  br label %80

80:                                               ; preds = %75, %67
  br label %81

81:                                               ; preds = %80, %58
  br label %82

82:                                               ; preds = %81, %37
  br label %83

83:                                               ; preds = %82
  %84 = load i32, i32* %5, align 4
  %85 = add nsw i32 %84, 1
  store i32 %85, i32* %5, align 4
  br label %9

86:                                               ; preds = %9
  store i32 0, i32* %5, align 4
  br label %87

87:                                               ; preds = %102, %86
  %88 = load i32, i32* %5, align 4
  %89 = icmp slt i32 %88, 3
  br i1 %89, label %90, label %105

90:                                               ; preds = %87
  %91 = load i32, i32* %5, align 4
  %92 = sext i32 %91 to i64
  %93 = getelementptr inbounds [4 x %struct.student], [4 x %struct.student]* %2, i64 0, i64 %92
  %94 = getelementptr inbounds %struct.student, %struct.student* %93, i32 0, i32 0
  %95 = load i32, i32* %94, align 16
  %96 = load i32, i32* %5, align 4
  %97 = sext i32 %96 to i64
  %98 = getelementptr inbounds [4 x %struct.student], [4 x %struct.student]* %2, i64 0, i64 %97
  %99 = getelementptr inbounds %struct.student, %struct.student* %98, i32 0, i32 3
  %100 = load i32, i32* %99, align 4
  %101 = call i32 (i8*, ...) @printf(i8* getelementptr inbounds ([7 x i8], [7 x i8]* @.str.2, i64 0, i64 0), i32 %95, i32 %100)
  br label %102

102:                                              ; preds = %90
  %103 = load i32, i32* %5, align 4
  %104 = add nsw i32 %103, 1
  store i32 %104, i32* %5, align 4
  br label %87

105:                                              ; preds = %87
  ret i32 0
}

; Function Attrs: argmemonly nounwind willreturn
declare void @llvm.memset.p0i8.i64(i8* nocapture writeonly, i8, i64, i1 immarg) #1

declare dso_local i32 @__isoc99_scanf(i8*, ...) #2

; Function Attrs: argmemonly nounwind willreturn
declare void @llvm.memcpy.p0i8.p0i8.i64(i8* noalias nocapture writeonly, i8* noalias nocapture readonly, i64, i1 immarg) #1

declare dso_local i32 @printf(i8*, ...) #2


!llvm.module.flags = !{!0}
!llvm.ident = !{!1}

!0 = !{i32 1, !"wchar_size", i32 4}
!1 = !{!"clang version 10.0.0-4ubuntu1 "}
